; Function Attrs: mustprogress nounwind uwtable
define dso_local noundef zeroext i1 @_ZNK4llvm2gi34MemoryAddressSpacePredicateMatcher11isIdenticalERKNS0_16PredicateMatcherE(ptr noundef nonnull align 8 dereferenceable(56) %0, ptr noundef nonnull align 8 dereferenceable(20) %1) unnamed_addr #0 align 2 {
  %3 = getelementptr inbounds nuw i8, ptr %1, i64 8
  %4 = load i32, ptr %3, align 8
  %5 = getelementptr inbounds nuw i8, ptr %0, i64 8
  %6 = load i32, ptr %5, align 8
  %7 = icmp eq i32 %4, %6
  br i1 %7, label %8, label %_ZNK4llvm15SmallVectorImplIjEeqERKS1_.exit

8:                                                ; preds = %2
  %9 = getelementptr inbounds nuw i8, ptr %0, i64 12
  %10 = load i32, ptr %9, align 4
  %11 = getelementptr inbounds nuw i8, ptr %1, i64 12
  %12 = load i32, ptr %11, align 4
  %13 = icmp eq i32 %10, %12
  br i1 %13, label %_ZNK4llvm2gi16PredicateMatcher11isIdenticalERKS1_.exit, label %_ZNK4llvm15SmallVectorImplIjEeqERKS1_.exit

_ZNK4llvm2gi16PredicateMatcher11isIdenticalERKS1_.exit: ; preds = %8
  %14 = getelementptr inbounds nuw i8, ptr %0, i64 16
  %15 = load i32, ptr %14, align 8
  %16 = getelementptr inbounds nuw i8, ptr %1, i64 16
  %17 = load i32, ptr %16, align 8
  %18 = icmp eq i32 %15, %17
  br i1 %18, label %19, label %_ZNK4llvm15SmallVectorImplIjEeqERKS1_.exit

19:                                               ; preds = %_ZNK4llvm2gi16PredicateMatcher11isIdenticalERKS1_.exit
  %20 = getelementptr inbounds nuw i8, ptr %0, i64 20
  %21 = load i32, ptr %20, align 4
  %22 = getelementptr inbounds nuw i8, ptr %1, i64 20
  %23 = load i32, ptr %22, align 4
  %24 = icmp eq i32 %21, %23
  br i1 %24, label %25, label %_ZNK4llvm15SmallVectorImplIjEeqERKS1_.exit

25:                                               ; preds = %19
  %26 = getelementptr inbounds nuw i8, ptr %0, i64 24
  %27 = getelementptr inbounds nuw i8, ptr %1, i64 24
  %28 = tail call noundef i64 @_ZNK4llvm15SmallVectorBaseIjE4sizeEv(ptr noundef nonnull align 8 dereferenceable(16) %26) #30
  %29 = tail call noundef i64 @_ZNK4llvm15SmallVectorBaseIjE4sizeEv(ptr noundef nonnull align 8 dereferenceable(16) %27) #30
  %.not.i = icmp eq i64 %28, %29
  br i1 %.not.i, label %30, label %_ZNK4llvm15SmallVectorImplIjEeqERKS1_.exit

30:                                               ; preds = %25
  %31 = load ptr, ptr %26, align 8
  %32 = tail call noundef i64 @_ZNK4llvm15SmallVectorBaseIjE4sizeEv(ptr noundef nonnull align 8 dereferenceable(16) %26) #30
  %.not.i.i.i.i.i = icmp eq i64 %32, 0
  br i1 %.not.i.i.i.i.i, label %_ZNK4llvm15SmallVectorImplIjEeqERKS1_.exit, label %33

33:                                               ; preds = %30
  %34 = load ptr, ptr %27, align 8
  %.idx.i = shl nsw i64 %32, 2
  %bcmp.i.i.i.i.i = tail call i32 @bcmp(ptr %31, ptr %34, i64 %.idx.i)
  %.not7.i.i.i.i.i = icmp eq i32 %bcmp.i.i.i.i.i, 0
  br label %_ZNK4llvm15SmallVectorImplIjEeqERKS1_.exit

_ZNK4llvm15SmallVectorImplIjEeqERKS1_.exit:       ; preds = %2, %8, %33, %30, %25, %19, %_ZNK4llvm2gi16PredicateMatcher11isIdenticalERKS1_.exit
  %.0 = phi i1 [ false, %_ZNK4llvm2gi16PredicateMatcher11isIdenticalERKS1_.exit ], [ false, %19 ], [ false, %25 ], [ %.not7.i.i.i.i.i, %33 ], [ true, %30 ], [ false, %8 ], [ false, %2 ]
  ret i1 %.0
}